target datalayout = "e-m:e-p270:32:32-p271:32:32-p272:64:64-i64:64-i128:128-f80:128-n8:16:32:64-S128"
target triple = "x86_64-pc-linux-gnu"

%struct.trace_key = type { ptr, i32, i8 }
%struct.index_state = type { ptr, i32, i32, i32, i32, ptr, ptr, ptr, %struct.cache_time, i8, i32, %struct.hashmap, %struct.hashmap, %struct.object_id, ptr, ptr, ptr, ptr, ptr, ptr, ptr }
%struct.cache_time = type { i32, i32 }
%struct.hashmap = type { ptr, ptr, ptr, i32, i32, i32, i32, i8 }
%struct.object_id = type { [32 x i8], i32 }

@trace_fsmonitor = dso_local global { ptr, i32, i8, [3 x i8] } { ptr @.str, i32 0, i8 0, [3 x i8] zeroinitializer }, align 8
@.str.5 = private unnamed_addr constant [12 x i8] c"fsmonitor.c\00", align 1
@.str.26 = private unnamed_addr constant [17 x i8] c"remove fsmonitor\00", align 1

; Function Attrs: inlinehint nounwind uwtable
define internal i32 @trace_pass_fl(ptr noundef %0) #4 {
  %2 = alloca ptr, align 8
  store ptr %0, ptr %2, align 8, !tbaa !44
  %3 = load ptr, ptr %2, align 8, !tbaa !44
  %4 = getelementptr inbounds nuw %struct.trace_key, ptr %3, i32 0, i32 1
  %5 = load i32, ptr %4, align 8, !tbaa !46
  %6 = icmp ne i32 %5, 0
  br i1 %6, label %15, label %7

7:                                                ; preds = %1
  %8 = load ptr, ptr %2, align 8, !tbaa !44
  %9 = getelementptr inbounds nuw %struct.trace_key, ptr %8, i32 0, i32 2
  %10 = load i8, ptr %9, align 4
  %11 = and i8 %10, 1
  %12 = zext i8 %11 to i32
  %13 = icmp ne i32 %12, 0
  %14 = xor i1 %13, true
  br label %15

15:                                               ; preds = %7, %1
  %16 = phi i1 [ true, %1 ], [ %14, %7 ]
  %17 = zext i1 %16 to i32
  ret i32 %17
}

; Function Attrs: nounwind uwtable
define dso_local void @remove_fsmonitor(ptr noundef %0) #0 {
  %2 = alloca ptr, align 8
  store ptr %0, ptr %2, align 8, !tbaa !4
  %3 = load ptr, ptr %2, align 8, !tbaa !4
  %4 = getelementptr inbounds nuw %struct.index_state, ptr %3, i32 0, i32 15
  %5 = load ptr, ptr %4, align 8, !tbaa !18
  %6 = icmp ne ptr %5, null
  br i1 %6, label %7, label %25

7:                                                ; preds = %1
  br label %8

8:                                                ; preds = %7
  %9 = call i32 @trace_pass_fl(ptr noundef @trace_fsmonitor)
  %10 = icmp ne i32 %9, 0
  br i1 %10, label %11, label %12

11:                                               ; preds = %8
  call void (ptr, i32, ptr, ptr, ...) @trace_printf_key_fl(ptr noundef @.str.5, i32 noundef 786, ptr noundef @trace_fsmonitor, ptr noundef @.str.26)
  br label %12

12:                                               ; preds = %11, %8
  br label %13

13:                                               ; preds = %12
  %14 = load ptr, ptr %2, align 8, !tbaa !4
  %15 = getelementptr inbounds nuw %struct.index_state, ptr %14, i32 0, i32 4
  %16 = load i32, ptr %15, align 4, !tbaa !58
  %17 = or i32 %16, 256
  store i32 %17, ptr %15, align 4, !tbaa !58
  br label %18

18:                                               ; preds = %13
  %19 = load ptr, ptr %2, align 8, !tbaa !4
  %20 = getelementptr inbounds nuw %struct.index_state, ptr %19, i32 0, i32 15
  %21 = load ptr, ptr %20, align 8, !tbaa !18
  call void @free(ptr noundef %21) #8
  %22 = load ptr, ptr %2, align 8, !tbaa !4
  %23 = getelementptr inbounds nuw %struct.index_state, ptr %22, i32 0, i32 15
  store ptr null, ptr %23, align 8, !tbaa !18
  br label %24

24:                                               ; preds = %18
  br label %25

25:                                               ; preds = %24, %1
  ret void
}