; Function Attrs: nounwind uwtable
define dso_local void @remove_fsmonitor(ptr noundef captures(none) %0) local_unnamed_addr #0 {
  %2 = getelementptr inbounds nuw i8, ptr %0, i64 208
  %3 = load ptr, ptr %2, align 8, !tbaa !12
  %.not = icmp eq ptr %3, null
  br i1 %.not, label %12, label %4

4:                                                ; preds = %1
  %trace_fsmonitor.val = load i32, ptr getelementptr inbounds nuw (i8, ptr @trace_fsmonitor, i64 8), align 8, !tbaa !35
  %trace_fsmonitor.val5 = load i8, ptr getelementptr inbounds nuw (i8, ptr @trace_fsmonitor, i64 12), align 4
  %.not.i = icmp eq i32 %trace_fsmonitor.val, 0
  %5 = and i8 %trace_fsmonitor.val5, 1
  %.not46 = icmp ne i8 %5, 0
  %.not4 = select i1 %.not.i, i1 %.not46, i1 false
  br i1 %.not4, label %7, label %6

6:                                                ; preds = %4
  tail call void (ptr, i32, ptr, ptr, ...) @trace_printf_key_fl(ptr noundef nonnull @.str.5, i32 noundef 786, ptr noundef nonnull @trace_fsmonitor, ptr noundef nonnull @.str.26) #8
  %.pre = load ptr, ptr %2, align 8, !tbaa !12
  br label %7

7:                                                ; preds = %4, %6
  %8 = phi ptr [ %3, %4 ], [ %.pre, %6 ]
  %9 = getelementptr inbounds nuw i8, ptr %0, i64 20
  %10 = load i32, ptr %9, align 4, !tbaa !49
  %11 = or i32 %10, 256
  store i32 %11, ptr %9, align 4, !tbaa !49
  tail call void @free(ptr noundef %8) #8
  store ptr null, ptr %2, align 8, !tbaa !12
  br label %12

12:                                               ; preds = %7, %1
  ret void
}